target datalayout = "e-m:e-p270:32:32-p271:32:32-p272:64:64-i64:64-i128:128-f80:128-n8:16:32:64-S128"
target triple = "x86_64-pc-linux-gnu"

%struct.sentinelRedisInstance = type { i32, ptr, ptr, i64, ptr, ptr, i64, i64, i64, i64, i64, i64, i64, i64, i64, ptr, i32, i64, i64, ptr, ptr, i32, i32, ptr, ptr, i64, i32, i32, i64, ptr, ptr, i32, i32, i64, ptr, i64, i64, i32, i64, i64, i64, i64, ptr, ptr, ptr, ptr }
%struct.instanceLink = type { i32, i32, i32, ptr, ptr, i64, i64, i64, i64, i64, i64, i64, i64 }
%struct.redisAsyncContext = type { %struct.redisContext, i32, ptr, ptr, ptr, %struct.anon.2, ptr, ptr, ptr, %struct.redisCallbackList, ptr, i64, %struct.anon.3, ptr }
%struct.redisContext = type { ptr, i32, [128 x i8], i32, i32, ptr, ptr, i32, ptr, ptr, %struct.anon.0, %struct.anon.1, ptr, i64, ptr, ptr, ptr, ptr }
%struct.anon.0 = type { ptr, ptr, i32 }
%struct.anon.1 = type { ptr }
%struct.anon.2 = type { ptr, ptr, ptr, ptr, ptr, ptr, ptr }
%struct.redisCallbackList = type { ptr, ptr }
%struct.anon.3 = type { %struct.redisCallbackList, ptr, ptr, i32 }

@.str.54 = private unnamed_addr constant [3 x i8] c"%@\00", align 1
@sentinel_info_period = internal global i64 10000, align 8
@sentinel_publish_period = internal global i64 2000, align 8
@sentinel_min_link_reconnect_period = internal global i64 15000, align 8
@.str.404 = private unnamed_addr constant [7 x i8] c"+sdown\00", align 1
@.str.405 = private unnamed_addr constant [7 x i8] c"-sdown\00", align 1

; Function Attrs: nounwind uwtable
define dso_local void @instanceLinkCloseConnection(ptr noundef %0, ptr noundef %1) #0 {
  %3 = alloca ptr, align 8
  %4 = alloca ptr, align 8
  store ptr %0, ptr %3, align 8, !tbaa !129
  store ptr %1, ptr %4, align 8, !tbaa !145
  %5 = load ptr, ptr %4, align 8, !tbaa !145
  %6 = icmp eq ptr %5, null
  br i1 %6, label %7, label %8

7:                                                ; preds = %2
  br label %34

8:                                                ; preds = %2
  %9 = load ptr, ptr %3, align 8, !tbaa !129
  %10 = getelementptr inbounds nuw %struct.instanceLink, ptr %9, i32 0, i32 3
  %11 = load ptr, ptr %10, align 8, !tbaa !135
  %12 = load ptr, ptr %4, align 8, !tbaa !145
  %13 = icmp eq ptr %11, %12
  br i1 %13, label %14, label %19

14:                                               ; preds = %8
  %15 = load ptr, ptr %3, align 8, !tbaa !129
  %16 = getelementptr inbounds nuw %struct.instanceLink, ptr %15, i32 0, i32 3
  store ptr null, ptr %16, align 8, !tbaa !135
  %17 = load ptr, ptr %3, align 8, !tbaa !129
  %18 = getelementptr inbounds nuw %struct.instanceLink, ptr %17, i32 0, i32 2
  store i32 0, ptr %18, align 8, !tbaa !134
  br label %19

19:                                               ; preds = %14, %8
  %20 = load ptr, ptr %3, align 8, !tbaa !129
  %21 = getelementptr inbounds nuw %struct.instanceLink, ptr %20, i32 0, i32 4
  %22 = load ptr, ptr %21, align 8, !tbaa !136
  %23 = load ptr, ptr %4, align 8, !tbaa !145
  %24 = icmp eq ptr %22, %23
  br i1 %24, label %25, label %28

25:                                               ; preds = %19
  %26 = load ptr, ptr %3, align 8, !tbaa !129
  %27 = getelementptr inbounds nuw %struct.instanceLink, ptr %26, i32 0, i32 4
  store ptr null, ptr %27, align 8, !tbaa !136
  br label %28

28:                                               ; preds = %25, %19
  %29 = load ptr, ptr %4, align 8, !tbaa !145
  %30 = getelementptr inbounds nuw %struct.redisAsyncContext, ptr %29, i32 0, i32 3
  store ptr null, ptr %30, align 8, !tbaa !146
  %31 = load ptr, ptr %3, align 8, !tbaa !129
  %32 = getelementptr inbounds nuw %struct.instanceLink, ptr %31, i32 0, i32 1
  store i32 1, ptr %32, align 4, !tbaa !133
  %33 = load ptr, ptr %4, align 8, !tbaa !145
  call void @redisAsyncFree(ptr noundef %33)
  br label %34

34:                                               ; preds = %28, %7
  ret void
}

; Function Attrs: nounwind uwtable
define dso_local void @sentinelCheckSubjectivelyDown(ptr noundef %0) #0 {
  %2 = alloca ptr, align 8
  %3 = alloca i64, align 8
  store ptr %0, ptr %2, align 8, !tbaa !11
  call void @llvm.lifetime.start.p0(i64 8, ptr %3) #16
  store i64 0, ptr %3, align 8, !tbaa !119
  %4 = load ptr, ptr %2, align 8, !tbaa !11
  %5 = getelementptr inbounds nuw %struct.sentinelRedisInstance, ptr %4, i32 0, i32 5
  %6 = load ptr, ptr %5, align 8, !tbaa !22
  %7 = getelementptr inbounds nuw %struct.instanceLink, ptr %6, i32 0, i32 9
  %8 = load i64, ptr %7, align 8, !tbaa !141
  %9 = icmp ne i64 %8, 0
  br i1 %9, label %10, label %18

10:                                               ; preds = %1
  %11 = call i64 @mstime()
  %12 = load ptr, ptr %2, align 8, !tbaa !11
  %13 = getelementptr inbounds nuw %struct.sentinelRedisInstance, ptr %12, i32 0, i32 5
  %14 = load ptr, ptr %13, align 8, !tbaa !22
  %15 = getelementptr inbounds nuw %struct.instanceLink, ptr %14, i32 0, i32 9
  %16 = load i64, ptr %15, align 8, !tbaa !141
  %17 = sub nsw i64 %11, %16
  store i64 %17, ptr %3, align 8, !tbaa !119
  br label %34

18:                                               ; preds = %1
  %19 = load ptr, ptr %2, align 8, !tbaa !11
  %20 = getelementptr inbounds nuw %struct.sentinelRedisInstance, ptr %19, i32 0, i32 5
  %21 = load ptr, ptr %20, align 8, !tbaa !22
  %22 = getelementptr inbounds nuw %struct.instanceLink, ptr %21, i32 0, i32 1
  %23 = load i32, ptr %22, align 4, !tbaa !133
  %24 = icmp ne i32 %23, 0
  br i1 %24, label %25, label %33

25:                                               ; preds = %18
  %26 = call i64 @mstime()
  %27 = load ptr, ptr %2, align 8, !tbaa !11
  %28 = getelementptr inbounds nuw %struct.sentinelRedisInstance, ptr %27, i32 0, i32 5
  %29 = load ptr, ptr %28, align 8, !tbaa !22
  %30 = getelementptr inbounds nuw %struct.instanceLink, ptr %29, i32 0, i32 8
  %31 = load i64, ptr %30, align 8, !tbaa !143
  %32 = sub nsw i64 %26, %31
  store i64 %32, ptr %3, align 8, !tbaa !119
  br label %33

33:                                               ; preds = %25, %18
  br label %34

34:                                               ; preds = %33, %10
  %35 = load ptr, ptr %2, align 8, !tbaa !11
  %36 = getelementptr inbounds nuw %struct.sentinelRedisInstance, ptr %35, i32 0, i32 5
  %37 = load ptr, ptr %36, align 8, !tbaa !22
  %38 = getelementptr inbounds nuw %struct.instanceLink, ptr %37, i32 0, i32 3
  %39 = load ptr, ptr %38, align 8, !tbaa !135
  %40 = icmp ne ptr %39, null
  br i1 %40, label %41, label %93

41:                                               ; preds = %34
  %42 = call i64 @mstime()
  %43 = load ptr, ptr %2, align 8, !tbaa !11
  %44 = getelementptr inbounds nuw %struct.sentinelRedisInstance, ptr %43, i32 0, i32 5
  %45 = load ptr, ptr %44, align 8, !tbaa !22
  %46 = getelementptr inbounds nuw %struct.instanceLink, ptr %45, i32 0, i32 5
  %47 = load i64, ptr %46, align 8, !tbaa !137
  %48 = sub nsw i64 %42, %47
  %49 = load i64, ptr @sentinel_min_link_reconnect_period, align 8, !tbaa !119
  %50 = icmp sgt i64 %48, %49
  br i1 %50, label %51, label %93

51:                                               ; preds = %41
  %52 = load ptr, ptr %2, align 8, !tbaa !11
  %53 = getelementptr inbounds nuw %struct.sentinelRedisInstance, ptr %52, i32 0, i32 5
  %54 = load ptr, ptr %53, align 8, !tbaa !22
  %55 = getelementptr inbounds nuw %struct.instanceLink, ptr %54, i32 0, i32 9
  %56 = load i64, ptr %55, align 8, !tbaa !141
  %57 = icmp ne i64 %56, 0
  br i1 %57, label %58, label %93

58:                                               ; preds = %51
  %59 = call i64 @mstime()
  %60 = load ptr, ptr %2, align 8, !tbaa !11
  %61 = getelementptr inbounds nuw %struct.sentinelRedisInstance, ptr %60, i32 0, i32 5
  %62 = load ptr, ptr %61, align 8, !tbaa !22
  %63 = getelementptr inbounds nuw %struct.instanceLink, ptr %62, i32 0, i32 9
  %64 = load i64, ptr %63, align 8, !tbaa !141
  %65 = sub nsw i64 %59, %64
  %66 = load ptr, ptr %2, align 8, !tbaa !11
  %67 = getelementptr inbounds nuw %struct.sentinelRedisInstance, ptr %66, i32 0, i32 11
  %68 = load i64, ptr %67, align 8, !tbaa !180
  %69 = sdiv i64 %68, 2
  %70 = icmp sgt i64 %65, %69
  br i1 %70, label %71, label %93

71:                                               ; preds = %58
  %72 = call i64 @mstime()
  %73 = load ptr, ptr %2, align 8, !tbaa !11
  %74 = getelementptr inbounds nuw %struct.sentinelRedisInstance, ptr %73, i32 0, i32 5
  %75 = load ptr, ptr %74, align 8, !tbaa !22
  %76 = getelementptr inbounds nuw %struct.instanceLink, ptr %75, i32 0, i32 11
  %77 = load i64, ptr %76, align 8, !tbaa !144
  %78 = sub nsw i64 %72, %77
  %79 = load ptr, ptr %2, align 8, !tbaa !11
  %80 = getelementptr inbounds nuw %struct.sentinelRedisInstance, ptr %79, i32 0, i32 11
  %81 = load i64, ptr %80, align 8, !tbaa !180
  %82 = sdiv i64 %81, 2
  %83 = icmp sgt i64 %78, %82
  br i1 %83, label %84, label %93

84:                                               ; preds = %71
  %85 = load ptr, ptr %2, align 8, !tbaa !11
  %86 = getelementptr inbounds nuw %struct.sentinelRedisInstance, ptr %85, i32 0, i32 5
  %87 = load ptr, ptr %86, align 8, !tbaa !22
  %88 = load ptr, ptr %2, align 8, !tbaa !11
  %89 = getelementptr inbounds nuw %struct.sentinelRedisInstance, ptr %88, i32 0, i32 5
  %90 = load ptr, ptr %89, align 8, !tbaa !22
  %91 = getelementptr inbounds nuw %struct.instanceLink, ptr %90, i32 0, i32 3
  %92 = load ptr, ptr %91, align 8, !tbaa !135
  call void @instanceLinkCloseConnection(ptr noundef %87, ptr noundef %92)
  br label %93

93:                                               ; preds = %84, %71, %58, %51, %41, %34
  %94 = load ptr, ptr %2, align 8, !tbaa !11
  %95 = getelementptr inbounds nuw %struct.sentinelRedisInstance, ptr %94, i32 0, i32 5
  %96 = load ptr, ptr %95, align 8, !tbaa !22
  %97 = getelementptr inbounds nuw %struct.instanceLink, ptr %96, i32 0, i32 4
  %98 = load ptr, ptr %97, align 8, !tbaa !136
  %99 = icmp ne ptr %98, null
  br i1 %99, label %100, label %130

100:                                              ; preds = %93
  %101 = call i64 @mstime()
  %102 = load ptr, ptr %2, align 8, !tbaa !11
  %103 = getelementptr inbounds nuw %struct.sentinelRedisInstance, ptr %102, i32 0, i32 5
  %104 = load ptr, ptr %103, align 8, !tbaa !22
  %105 = getelementptr inbounds nuw %struct.instanceLink, ptr %104, i32 0, i32 6
  %106 = load i64, ptr %105, align 8, !tbaa !138
  %107 = sub nsw i64 %101, %106
  %108 = load i64, ptr @sentinel_min_link_reconnect_period, align 8, !tbaa !119
  %109 = icmp sgt i64 %107, %108
  br i1 %109, label %110, label %130

110:                                              ; preds = %100
  %111 = call i64 @mstime()
  %112 = load ptr, ptr %2, align 8, !tbaa !11
  %113 = getelementptr inbounds nuw %struct.sentinelRedisInstance, ptr %112, i32 0, i32 5
  %114 = load ptr, ptr %113, align 8, !tbaa !22
  %115 = getelementptr inbounds nuw %struct.instanceLink, ptr %114, i32 0, i32 7
  %116 = load i64, ptr %115, align 8, !tbaa !140
  %117 = sub nsw i64 %111, %116
  %118 = load i64, ptr @sentinel_publish_period, align 8, !tbaa !119
  %119 = mul nsw i64 %118, 3
  %120 = icmp sgt i64 %117, %119
  br i1 %120, label %121, label %130

121:                                              ; preds = %110
  %122 = load ptr, ptr %2, align 8, !tbaa !11
  %123 = getelementptr inbounds nuw %struct.sentinelRedisInstance, ptr %122, i32 0, i32 5
  %124 = load ptr, ptr %123, align 8, !tbaa !22
  %125 = load ptr, ptr %2, align 8, !tbaa !11
  %126 = getelementptr inbounds nuw %struct.sentinelRedisInstance, ptr %125, i32 0, i32 5
  %127 = load ptr, ptr %126, align 8, !tbaa !22
  %128 = getelementptr inbounds nuw %struct.instanceLink, ptr %127, i32 0, i32 4
  %129 = load ptr, ptr %128, align 8, !tbaa !136
  call void @instanceLinkCloseConnection(ptr noundef %124, ptr noundef %129)
  br label %130

130:                                              ; preds = %121, %110, %100, %93
  %131 = load i64, ptr %3, align 8, !tbaa !119
  %132 = load ptr, ptr %2, align 8, !tbaa !11
  %133 = getelementptr inbounds nuw %struct.sentinelRedisInstance, ptr %132, i32 0, i32 11
  %134 = load i64, ptr %133, align 8, !tbaa !180
  %135 = icmp sgt i64 %131, %134
  br i1 %135, label %176, label %136

136:                                              ; preds = %130
  %137 = load ptr, ptr %2, align 8, !tbaa !11
  %138 = getelementptr inbounds nuw %struct.sentinelRedisInstance, ptr %137, i32 0, i32 0
  %139 = load i32, ptr %138, align 8, !tbaa !34
  %140 = and i32 %139, 1
  %141 = icmp ne i32 %140, 0
  br i1 %141, label %142, label %160

142:                                              ; preds = %136
  %143 = load ptr, ptr %2, align 8, !tbaa !11
  %144 = getelementptr inbounds nuw %struct.sentinelRedisInstance, ptr %143, i32 0, i32 16
  %145 = load i32, ptr %144, align 8, !tbaa !198
  %146 = icmp eq i32 %145, 2
  br i1 %146, label %147, label %160

147:                                              ; preds = %142
  %148 = call i64 @mstime()
  %149 = load ptr, ptr %2, align 8, !tbaa !11
  %150 = getelementptr inbounds nuw %struct.sentinelRedisInstance, ptr %149, i32 0, i32 17
  %151 = load i64, ptr %150, align 8, !tbaa !199
  %152 = sub nsw i64 %148, %151
  %153 = load ptr, ptr %2, align 8, !tbaa !11
  %154 = getelementptr inbounds nuw %struct.sentinelRedisInstance, ptr %153, i32 0, i32 11
  %155 = load i64, ptr %154, align 8, !tbaa !180
  %156 = load i64, ptr @sentinel_info_period, align 8, !tbaa !119
  %157 = mul nsw i64 %156, 2
  %158 = add nsw i64 %155, %157
  %159 = icmp sgt i64 %152, %158
  br i1 %159, label %176, label %160

160:                                              ; preds = %147, %142, %136
  %161 = load ptr, ptr %2, align 8, !tbaa !11
  %162 = getelementptr inbounds nuw %struct.sentinelRedisInstance, ptr %161, i32 0, i32 0
  %163 = load i32, ptr %162, align 8, !tbaa !34
  %164 = and i32 %163, 8192
  %165 = icmp ne i32 %164, 0
  br i1 %165, label %166, label %192

166:                                              ; preds = %160
  %167 = call i64 @mstime()
  %168 = load ptr, ptr %2, align 8, !tbaa !11
  %169 = getelementptr inbounds nuw %struct.sentinelRedisInstance, ptr %168, i32 0, i32 13
  %170 = load i64, ptr %169, align 8, !tbaa !271
  %171 = sub nsw i64 %167, %170
  %172 = load ptr, ptr %2, align 8, !tbaa !11
  %173 = getelementptr inbounds nuw %struct.sentinelRedisInstance, ptr %172, i32 0, i32 12
  %174 = load i64, ptr %173, align 8, !tbaa !181
  %175 = icmp sgt i64 %171, %174
  br i1 %175, label %176, label %192

176:                                              ; preds = %166, %147, %130
  %177 = load ptr, ptr %2, align 8, !tbaa !11
  %178 = getelementptr inbounds nuw %struct.sentinelRedisInstance, ptr %177, i32 0, i32 0
  %179 = load i32, ptr %178, align 8, !tbaa !34
  %180 = and i32 %179, 8
  %181 = icmp eq i32 %180, 0
  br i1 %181, label %182, label %191

182:                                              ; preds = %176
  %183 = load ptr, ptr %2, align 8, !tbaa !11
  call void (i32, ptr, ptr, ptr, ...) @sentinelEvent(i32 noundef 3, ptr noundef @.str.404, ptr noundef %183, ptr noundef @.str.54)
  %184 = call i64 @mstime()
  %185 = load ptr, ptr %2, align 8, !tbaa !11
  %186 = getelementptr inbounds nuw %struct.sentinelRedisInstance, ptr %185, i32 0, i32 9
  store i64 %184, ptr %186, align 8, !tbaa !178
  %187 = load ptr, ptr %2, align 8, !tbaa !11
  %188 = getelementptr inbounds nuw %struct.sentinelRedisInstance, ptr %187, i32 0, i32 0
  %189 = load i32, ptr %188, align 8, !tbaa !34
  %190 = or i32 %189, 8
  store i32 %190, ptr %188, align 8, !tbaa !34
  br label %191

191:                                              ; preds = %182, %176
  br label %205

192:                                              ; preds = %166, %160
  %193 = load ptr, ptr %2, align 8, !tbaa !11
  %194 = getelementptr inbounds nuw %struct.sentinelRedisInstance, ptr %193, i32 0, i32 0
  %195 = load i32, ptr %194, align 8, !tbaa !34
  %196 = and i32 %195, 8
  %197 = icmp ne i32 %196, 0
  br i1 %197, label %198, label %204

198:                                              ; preds = %192
  %199 = load ptr, ptr %2, align 8, !tbaa !11
  call void (i32, ptr, ptr, ptr, ...) @sentinelEvent(i32 noundef 3, ptr noundef @.str.405, ptr noundef %199, ptr noundef @.str.54)
  %200 = load ptr, ptr %2, align 8, !tbaa !11
  %201 = getelementptr inbounds nuw %struct.sentinelRedisInstance, ptr %200, i32 0, i32 0
  %202 = load i32, ptr %201, align 8, !tbaa !34
  %203 = and i32 %202, -4105
  store i32 %203, ptr %201, align 8, !tbaa !34
  br label %204

204:                                              ; preds = %198, %192
  br label %205

205:                                              ; preds = %204, %191
  call void @llvm.lifetime.end.p0(i64 8, ptr %3) #16
  ret void
}