; Function Attrs: nounwind uwtable
define dso_local void @sentinelCheckSubjectivelyDown(ptr noundef captures(address_is_null) %0) local_unnamed_addr #0 {
  %2 = getelementptr inbounds nuw i8, ptr %0, i64 40
  %3 = load ptr, ptr %2, align 8, !tbaa !19
  %4 = getelementptr inbounds nuw i8, ptr %3, i64 64
  %5 = load i64, ptr %4, align 8, !tbaa !120
  %.not = icmp eq i64 %5, 0
  br i1 %.not, label %6, label %.sink.split

6:                                                ; preds = %1
  %7 = getelementptr inbounds nuw i8, ptr %3, i64 4
  %8 = load i32, ptr %7, align 4, !tbaa !117
  %.not33 = icmp eq i32 %8, 0
  br i1 %.not33, label %14, label %.sink.split

.sink.split:                                      ; preds = %6, %1
  %.sink47 = phi i64 [ 64, %1 ], [ 56, %6 ]
  %9 = tail call i64 @mstime() #30
  %10 = load ptr, ptr %2, align 8, !tbaa !19
  %11 = getelementptr inbounds nuw i8, ptr %10, i64 %.sink47
  %12 = load i64, ptr %11, align 8, !tbaa !107
  %13 = sub nsw i64 %9, %12
  br label %14

14:                                               ; preds = %.sink.split, %6
  %15 = phi ptr [ %3, %6 ], [ %10, %.sink.split ]
  %.0 = phi i64 [ 0, %6 ], [ %13, %.sink.split ]
  %16 = getelementptr inbounds nuw i8, ptr %15, i64 16
  %17 = load ptr, ptr %16, align 8, !tbaa !124
  %.not34 = icmp eq ptr %17, null
  br i1 %.not34, label %instanceLinkCloseConnection.exit, label %18

18:                                               ; preds = %14
  %19 = tail call i64 @mstime() #30
  %20 = load ptr, ptr %2, align 8, !tbaa !19
  %21 = getelementptr inbounds nuw i8, ptr %20, i64 32
  %22 = load i64, ptr %21, align 8, !tbaa !211
  %23 = sub nsw i64 %19, %22
  %24 = load i64, ptr @sentinel_min_link_reconnect_period, align 8, !tbaa !107
  %25 = icmp sgt i64 %23, %24
  br i1 %25, label %26, label %instanceLinkCloseConnection.exit

26:                                               ; preds = %18
  %27 = getelementptr inbounds nuw i8, ptr %20, i64 64
  %28 = load i64, ptr %27, align 8, !tbaa !120
  %.not35 = icmp eq i64 %28, 0
  br i1 %.not35, label %instanceLinkCloseConnection.exit, label %29

29:                                               ; preds = %26
  %30 = tail call i64 @mstime() #30
  %31 = load ptr, ptr %2, align 8, !tbaa !19
  %32 = getelementptr inbounds nuw i8, ptr %31, i64 64
  %33 = load i64, ptr %32, align 8, !tbaa !120
  %34 = sub nsw i64 %30, %33
  %35 = getelementptr inbounds nuw i8, ptr %0, i64 88
  %36 = load i64, ptr %35, align 8, !tbaa !154
  %37 = sdiv i64 %36, 2
  %38 = icmp sgt i64 %34, %37
  br i1 %38, label %39, label %instanceLinkCloseConnection.exit

39:                                               ; preds = %29
  %40 = tail call i64 @mstime() #30
  %41 = load ptr, ptr %2, align 8, !tbaa !19
  %42 = getelementptr inbounds nuw i8, ptr %41, i64 80
  %43 = load i64, ptr %42, align 8, !tbaa !123
  %44 = sub nsw i64 %40, %43
  %45 = load i64, ptr %35, align 8, !tbaa !154
  %46 = sdiv i64 %45, 2
  %47 = icmp sgt i64 %44, %46
  br i1 %47, label %48, label %instanceLinkCloseConnection.exit

48:                                               ; preds = %39
  %49 = getelementptr inbounds nuw i8, ptr %41, i64 16
  %50 = load ptr, ptr %49, align 8, !tbaa !124
  %51 = icmp eq ptr %50, null
  br i1 %51, label %instanceLinkCloseConnection.exit, label %52

52:                                               ; preds = %48
  store ptr null, ptr %49, align 8, !tbaa !124
  %53 = getelementptr inbounds nuw i8, ptr %41, i64 8
  store i32 0, ptr %53, align 8, !tbaa !118
  %54 = getelementptr inbounds nuw i8, ptr %41, i64 24
  %55 = load ptr, ptr %54, align 8, !tbaa !125
  %56 = icmp eq ptr %55, %50
  br i1 %56, label %57, label %58

57:                                               ; preds = %52
  store ptr null, ptr %54, align 8, !tbaa !125
  br label %58

58:                                               ; preds = %57, %52
  %59 = getelementptr inbounds nuw i8, ptr %50, i64 288
  store ptr null, ptr %59, align 8, !tbaa !126
  %60 = getelementptr inbounds nuw i8, ptr %41, i64 4
  store i32 1, ptr %60, align 4, !tbaa !117
  tail call void @redisAsyncFree(ptr noundef nonnull %50) #30
  %.pre = load ptr, ptr %2, align 8, !tbaa !19
  br label %instanceLinkCloseConnection.exit

instanceLinkCloseConnection.exit:                 ; preds = %58, %48, %39, %29, %26, %18, %14
  %61 = phi ptr [ %.pre, %58 ], [ %41, %48 ], [ %41, %39 ], [ %31, %29 ], [ %20, %26 ], [ %20, %18 ], [ %15, %14 ]
  %62 = getelementptr inbounds nuw i8, ptr %61, i64 24
  %63 = load ptr, ptr %62, align 8, !tbaa !125
  %.not36 = icmp eq ptr %63, null
  br i1 %.not36, label %instanceLinkCloseConnection.exit40, label %64

64:                                               ; preds = %instanceLinkCloseConnection.exit
  %65 = tail call i64 @mstime() #30
  %66 = load ptr, ptr %2, align 8, !tbaa !19
  %67 = getelementptr inbounds nuw i8, ptr %66, i64 40
  %68 = load i64, ptr %67, align 8, !tbaa !213
  %69 = sub nsw i64 %65, %68
  %70 = load i64, ptr @sentinel_min_link_reconnect_period, align 8, !tbaa !107
  %71 = icmp sgt i64 %69, %70
  br i1 %71, label %72, label %instanceLinkCloseConnection.exit40

72:                                               ; preds = %64
  %73 = tail call i64 @mstime() #30
  %74 = load ptr, ptr %2, align 8, !tbaa !19
  %75 = getelementptr inbounds nuw i8, ptr %74, i64 48
  %76 = load i64, ptr %75, align 8, !tbaa !227
  %77 = sub nsw i64 %73, %76
  %78 = load i64, ptr @sentinel_publish_period, align 8, !tbaa !107
  %79 = mul nsw i64 %78, 3
  %80 = icmp sgt i64 %77, %79
  br i1 %80, label %81, label %instanceLinkCloseConnection.exit40

81:                                               ; preds = %72
  %82 = getelementptr inbounds nuw i8, ptr %74, i64 24
  %83 = load ptr, ptr %82, align 8, !tbaa !125
  %84 = icmp eq ptr %83, null
  br i1 %84, label %instanceLinkCloseConnection.exit40, label %85

85:                                               ; preds = %81
  %86 = getelementptr inbounds nuw i8, ptr %74, i64 16
  %87 = load ptr, ptr %86, align 8, !tbaa !124
  %88 = icmp eq ptr %87, %83
  br i1 %88, label %89, label %91

89:                                               ; preds = %85
  store ptr null, ptr %86, align 8, !tbaa !124
  %90 = getelementptr inbounds nuw i8, ptr %74, i64 8
  store i32 0, ptr %90, align 8, !tbaa !118
  br label %91

91:                                               ; preds = %89, %85
  store ptr null, ptr %82, align 8, !tbaa !125
  %92 = getelementptr inbounds nuw i8, ptr %83, i64 288
  store ptr null, ptr %92, align 8, !tbaa !126
  %93 = getelementptr inbounds nuw i8, ptr %74, i64 4
  store i32 1, ptr %93, align 4, !tbaa !117
  tail call void @redisAsyncFree(ptr noundef nonnull %83) #30
  br label %instanceLinkCloseConnection.exit40

instanceLinkCloseConnection.exit40:               ; preds = %91, %81, %72, %64, %instanceLinkCloseConnection.exit
  %94 = getelementptr inbounds nuw i8, ptr %0, i64 88
  %95 = load i64, ptr %94, align 8, !tbaa !154
  %96 = icmp sgt i64 %.0, %95
  br i1 %96, label %125, label %97

97:                                               ; preds = %instanceLinkCloseConnection.exit40
  %98 = load i32, ptr %0, align 8, !tbaa !34
  %99 = and i32 %98, 1
  %.not37 = icmp eq i32 %99, 0
  br i1 %.not37, label %114, label %100

100:                                              ; preds = %97
  %101 = getelementptr inbounds nuw i8, ptr %0, i64 128
  %102 = load i32, ptr %101, align 8, !tbaa !165
  %103 = icmp eq i32 %102, 2
  br i1 %103, label %104, label %114

104:                                              ; preds = %100
  %105 = tail call i64 @mstime() #30
  %106 = getelementptr inbounds nuw i8, ptr %0, i64 136
  %107 = load i64, ptr %106, align 8, !tbaa !166
  %108 = sub nsw i64 %105, %107
  %109 = load i64, ptr %94, align 8, !tbaa !154
  %110 = load i64, ptr @sentinel_info_period, align 8, !tbaa !107
  %111 = shl nuw nsw i64 %110, 1
  %112 = add nsw i64 %111, %109
  %113 = icmp sgt i64 %108, %112
  br i1 %113, label %125, label %._crit_edge

._crit_edge:                                      ; preds = %104
  %.pre41 = load i32, ptr %0, align 8, !tbaa !34
  br label %114

114:                                              ; preds = %._crit_edge, %100, %97
  %115 = phi i32 [ %.pre41, %._crit_edge ], [ %98, %100 ], [ %98, %97 ]
  %116 = and i32 %115, 8192
  %.not38 = icmp eq i32 %116, 0
  br i1 %.not38, label %134, label %117

117:                                              ; preds = %114
  %118 = tail call i64 @mstime() #30
  %119 = getelementptr inbounds nuw i8, ptr %0, i64 104
  %120 = load i64, ptr %119, align 8, !tbaa !238
  %121 = sub nsw i64 %118, %120
  %122 = getelementptr inbounds nuw i8, ptr %0, i64 96
  %123 = load i64, ptr %122, align 8, !tbaa !155
  %124 = icmp sgt i64 %121, %123
  br i1 %124, label %125, label %._crit_edge42

._crit_edge42:                                    ; preds = %117
  %.pre43 = load i32, ptr %0, align 8, !tbaa !34
  br label %134

125:                                              ; preds = %117, %104, %instanceLinkCloseConnection.exit40
  %126 = load i32, ptr %0, align 8, !tbaa !34
  %127 = and i32 %126, 8
  %128 = icmp eq i32 %127, 0
  br i1 %128, label %129, label %140

129:                                              ; preds = %125
  tail call void (i32, ptr, ptr, ptr, ...) @sentinelEvent(i32 noundef 3, ptr noundef nonnull @.str.404, ptr noundef nonnull %0, ptr noundef nonnull @.str.54)
  %130 = tail call i64 @mstime() #30
  %131 = getelementptr inbounds nuw i8, ptr %0, i64 72
  store i64 %130, ptr %131, align 8, !tbaa !175
  %132 = load i32, ptr %0, align 8, !tbaa !34
  %133 = or i32 %132, 8
  br label %.sink.split48

134:                                              ; preds = %._crit_edge42, %114
  %135 = phi i32 [ %.pre43, %._crit_edge42 ], [ %115, %114 ]
  %136 = and i32 %135, 8
  %.not39 = icmp eq i32 %136, 0
  br i1 %.not39, label %140, label %137

137:                                              ; preds = %134
  tail call void (i32, ptr, ptr, ptr, ...) @sentinelEvent(i32 noundef 3, ptr noundef nonnull @.str.405, ptr noundef nonnull %0, ptr noundef nonnull @.str.54)
  %138 = load i32, ptr %0, align 8, !tbaa !34
  %139 = and i32 %138, -4105
  br label %.sink.split48

.sink.split48:                                    ; preds = %129, %137
  %.sink = phi i32 [ %139, %137 ], [ %133, %129 ]
  store i32 %.sink, ptr %0, align 8, !tbaa !34
  br label %140

140:                                              ; preds = %.sink.split48, %134, %125
  ret void
}